target datalayout = "e-m:e-p270:32:32-p271:32:32-p272:64:64-i64:64-i128:128-f80:128-n8:16:32:64-S128"
target triple = "x86_64-pc-linux-gnu"

%struct._zend_compiler_globals = type { %struct._zend_stack, ptr, ptr, i32, ptr, ptr, ptr, ptr, i8, i8, i8, i8, i8, %struct._zend_llist, ptr, i8, i8, i8, i8, ptr, i32, i32, %struct._zend_oparray_context, %struct._zend_file_context, ptr, %struct._zend_array, ptr, i64, i8, i8, i8, ptr, ptr, %struct._zend_stack, ptr, i32, ptr, ptr, i64, i64, ptr, ptr, ptr, ptr, i32, %struct._zend_stack }
%struct._zend_llist = type { ptr, ptr, i64, i64, ptr, i8, ptr }
%struct._zend_oparray_context = type { i32, i32, i32, i32, i32, i32, i32, ptr, ptr, i8 }
%struct._zend_file_context = type { %struct._zend_declarables, ptr, i8, i8, ptr, ptr, ptr, %struct._zend_array }
%struct._zend_declarables = type { i64 }
%struct._zend_array = type { %struct._zend_refcounted_h, %union.anon.0, i32, %union.anon.1, i32, i32, i32, i32, i64, ptr }
%struct._zend_refcounted_h = type { i32, %union.anon }
%union.anon = type { i32 }
%union.anon.0 = type { i32 }
%union.anon.1 = type { ptr }
%struct._zend_stack = type { i32, i32, i32, ptr }
%struct._zval_struct = type { %union._zend_value, %union.anon.3, %union.anon.6 }
%union._zend_value = type { i64 }
%union.anon.3 = type { i32 }
%union.anon.6 = type { i32 }
%struct._zend_auto_global = type { ptr, ptr, i8, i8 }

@compiler_globals = global %struct._zend_compiler_globals zeroinitializer, align 8

; Function Attrs: nounwind uwtable
define i32 @zend_register_auto_global(ptr noundef %0, i1 noundef zeroext %1, ptr noundef %2) #0 {
  %4 = alloca i32, align 4
  %5 = alloca ptr, align 8
  %6 = alloca ptr, align 8
  %7 = alloca ptr, align 8
  %8 = alloca ptr, align 8
  %9 = alloca i64, align 8
  %10 = alloca %struct._zval_struct, align 8
  %11 = alloca ptr, align 8
  %12 = alloca ptr, align 8
  %13 = alloca i8, align 1
  %14 = alloca ptr, align 8
  %15 = alloca %struct._zend_auto_global, align 8
  %16 = alloca i32, align 4
  store ptr %0, ptr %12, align 8
  %17 = zext i1 %1 to i8
  store i8 %17, ptr %13, align 1
  store ptr %2, ptr %14, align 8
  %18 = load ptr, ptr %12, align 8
  %19 = getelementptr inbounds %struct._zend_auto_global, ptr %15, i32 0, i32 0
  store ptr %18, ptr %19, align 8
  %20 = load ptr, ptr %14, align 8
  %21 = getelementptr inbounds %struct._zend_auto_global, ptr %15, i32 0, i32 1
  store ptr %20, ptr %21, align 8
  %22 = load i8, ptr %13, align 1
  %23 = trunc i8 %22 to i1
  %24 = getelementptr inbounds %struct._zend_auto_global, ptr %15, i32 0, i32 2
  %25 = zext i1 %23 to i8
  store i8 %25, ptr %24, align 8
  %26 = load ptr, ptr getelementptr inbounds (%struct._zend_compiler_globals, ptr @compiler_globals, i32 0, i32 7), align 8
  %27 = getelementptr inbounds %struct._zend_auto_global, ptr %15, i32 0, i32 0
  %28 = load ptr, ptr %27, align 8
  store ptr %26, ptr %6, align 8
  store ptr %28, ptr %7, align 8
  store ptr %15, ptr %8, align 8
  store i64 24, ptr %9, align 8
  store ptr null, ptr %10, align 8
  %29 = getelementptr inbounds %struct._zval_struct, ptr %10, i32 0, i32 1
  store i32 13, ptr %29, align 8
  %30 = load ptr, ptr %6, align 8
  %31 = load ptr, ptr %7, align 8
  %32 = call ptr @zend_hash_add(ptr noundef %30, ptr noundef %31, ptr noundef %10) #15
  store ptr %32, ptr %11, align 8
  %33 = icmp ne ptr %32, null
  br i1 %33, label %34, label %283

34:                                               ; preds = %3
  %35 = load ptr, ptr %6, align 8
  %36 = getelementptr inbounds %struct._zend_refcounted_h, ptr %35, i32 0, i32 1
  %37 = load i32, ptr %36, align 4
  store i32 %37, ptr %4, align 4
  %38 = load i32, ptr %4, align 4
  %39 = and i32 %38, 1008
  %40 = and i32 %39, 128
  %41 = icmp ne i32 %40, 0
  br i1 %41, label %42, label %45

42:                                               ; preds = %34
  %43 = load i64, ptr %9, align 8
  %44 = call noalias ptr @__zend_malloc(i64 noundef %43) #16
  br label %274

45:                                               ; preds = %34
  %46 = load i64, ptr %9, align 8
  %47 = call i1 @llvm.is.constant.i64(i64 %46)
  br i1 %47, label %48, label %269

48:                                               ; preds = %45
  %49 = load i64, ptr %9, align 8
  %50 = icmp ule i64 %49, 8
  br i1 %50, label %51, label %53

51:                                               ; preds = %48
  %52 = call noalias ptr @_emalloc_8() #15
  br label %267

53:                                               ; preds = %48
  %54 = load i64, ptr %9, align 8
  %55 = icmp ule i64 %54, 16
  br i1 %55, label %56, label %58

56:                                               ; preds = %53
  %57 = call noalias ptr @_emalloc_16() #15
  br label %265

58:                                               ; preds = %53
  %59 = load i64, ptr %9, align 8
  %60 = icmp ule i64 %59, 24
  br i1 %60, label %61, label %63

61:                                               ; preds = %58
  %62 = call noalias ptr @_emalloc_24() #15
  br label %263

63:                                               ; preds = %58
  %64 = load i64, ptr %9, align 8
  %65 = icmp ule i64 %64, 32
  br i1 %65, label %66, label %68

66:                                               ; preds = %63
  %67 = call noalias ptr @_emalloc_32() #15
  br label %261

68:                                               ; preds = %63
  %69 = load i64, ptr %9, align 8
  %70 = icmp ule i64 %69, 40
  br i1 %70, label %71, label %73

71:                                               ; preds = %68
  %72 = call noalias ptr @_emalloc_40() #15
  br label %259

73:                                               ; preds = %68
  %74 = load i64, ptr %9, align 8
  %75 = icmp ule i64 %74, 48
  br i1 %75, label %76, label %78

76:                                               ; preds = %73
  %77 = call noalias ptr @_emalloc_48() #15
  br label %257

78:                                               ; preds = %73
  %79 = load i64, ptr %9, align 8
  %80 = icmp ule i64 %79, 56
  br i1 %80, label %81, label %83

81:                                               ; preds = %78
  %82 = call noalias ptr @_emalloc_56() #15
  br label %255

83:                                               ; preds = %78
  %84 = load i64, ptr %9, align 8
  %85 = icmp ule i64 %84, 64
  br i1 %85, label %86, label %88

86:                                               ; preds = %83
  %87 = call noalias ptr @_emalloc_64() #15
  br label %253

88:                                               ; preds = %83
  %89 = load i64, ptr %9, align 8
  %90 = icmp ule i64 %89, 80
  br i1 %90, label %91, label %93

91:                                               ; preds = %88
  %92 = call noalias ptr @_emalloc_80() #15
  br label %251

93:                                               ; preds = %88
  %94 = load i64, ptr %9, align 8
  %95 = icmp ule i64 %94, 96
  br i1 %95, label %96, label %98

96:                                               ; preds = %93
  %97 = call noalias ptr @_emalloc_96() #15
  br label %249

98:                                               ; preds = %93
  %99 = load i64, ptr %9, align 8
  %100 = icmp ule i64 %99, 112
  br i1 %100, label %101, label %103

101:                                              ; preds = %98
  %102 = call noalias ptr @_emalloc_112() #15
  br label %247

103:                                              ; preds = %98
  %104 = load i64, ptr %9, align 8
  %105 = icmp ule i64 %104, 128
  br i1 %105, label %106, label %108

106:                                              ; preds = %103
  %107 = call noalias ptr @_emalloc_128() #15
  br label %245

108:                                              ; preds = %103
  %109 = load i64, ptr %9, align 8
  %110 = icmp ule i64 %109, 160
  br i1 %110, label %111, label %113

111:                                              ; preds = %108
  %112 = call noalias ptr @_emalloc_160() #15
  br label %243

113:                                              ; preds = %108
  %114 = load i64, ptr %9, align 8
  %115 = icmp ule i64 %114, 192
  br i1 %115, label %116, label %118

116:                                              ; preds = %113
  %117 = call noalias ptr @_emalloc_192() #15
  br label %241

118:                                              ; preds = %113
  %119 = load i64, ptr %9, align 8
  %120 = icmp ule i64 %119, 224
  br i1 %120, label %121, label %123

121:                                              ; preds = %118
  %122 = call noalias ptr @_emalloc_224() #15
  br label %239

123:                                              ; preds = %118
  %124 = load i64, ptr %9, align 8
  %125 = icmp ule i64 %124, 256
  br i1 %125, label %126, label %128

126:                                              ; preds = %123
  %127 = call noalias ptr @_emalloc_256() #15
  br label %237

128:                                              ; preds = %123
  %129 = load i64, ptr %9, align 8
  %130 = icmp ule i64 %129, 320
  br i1 %130, label %131, label %133

131:                                              ; preds = %128
  %132 = call noalias ptr @_emalloc_320() #15
  br label %235

133:                                              ; preds = %128
  %134 = load i64, ptr %9, align 8
  %135 = icmp ule i64 %134, 384
  br i1 %135, label %136, label %138

136:                                              ; preds = %133
  %137 = call noalias ptr @_emalloc_384() #15
  br label %233

138:                                              ; preds = %133
  %139 = load i64, ptr %9, align 8
  %140 = icmp ule i64 %139, 448
  br i1 %140, label %141, label %143

141:                                              ; preds = %138
  %142 = call noalias ptr @_emalloc_448() #15
  br label %231

143:                                              ; preds = %138
  %144 = load i64, ptr %9, align 8
  %145 = icmp ule i64 %144, 512
  br i1 %145, label %146, label %148

146:                                              ; preds = %143
  %147 = call noalias ptr @_emalloc_512() #15
  br label %229

148:                                              ; preds = %143
  %149 = load i64, ptr %9, align 8
  %150 = icmp ule i64 %149, 640
  br i1 %150, label %151, label %153

151:                                              ; preds = %148
  %152 = call noalias ptr @_emalloc_640() #15
  br label %227

153:                                              ; preds = %148
  %154 = load i64, ptr %9, align 8
  %155 = icmp ule i64 %154, 768
  br i1 %155, label %156, label %158

156:                                              ; preds = %153
  %157 = call noalias ptr @_emalloc_768() #15
  br label %225

158:                                              ; preds = %153
  %159 = load i64, ptr %9, align 8
  %160 = icmp ule i64 %159, 896
  br i1 %160, label %161, label %163

161:                                              ; preds = %158
  %162 = call noalias ptr @_emalloc_896() #15
  br label %223

163:                                              ; preds = %158
  %164 = load i64, ptr %9, align 8
  %165 = icmp ule i64 %164, 1024
  br i1 %165, label %166, label %168

166:                                              ; preds = %163
  %167 = call noalias ptr @_emalloc_1024() #15
  br label %221

168:                                              ; preds = %163
  %169 = load i64, ptr %9, align 8
  %170 = icmp ule i64 %169, 1280
  br i1 %170, label %171, label %173

171:                                              ; preds = %168
  %172 = call noalias ptr @_emalloc_1280() #15
  br label %219

173:                                              ; preds = %168
  %174 = load i64, ptr %9, align 8
  %175 = icmp ule i64 %174, 1536
  br i1 %175, label %176, label %178

176:                                              ; preds = %173
  %177 = call noalias ptr @_emalloc_1536() #15
  br label %217

178:                                              ; preds = %173
  %179 = load i64, ptr %9, align 8
  %180 = icmp ule i64 %179, 1792
  br i1 %180, label %181, label %183

181:                                              ; preds = %178
  %182 = call noalias ptr @_emalloc_1792() #15
  br label %215

183:                                              ; preds = %178
  %184 = load i64, ptr %9, align 8
  %185 = icmp ule i64 %184, 2048
  br i1 %185, label %186, label %188

186:                                              ; preds = %183
  %187 = call noalias ptr @_emalloc_2048() #15
  br label %213

188:                                              ; preds = %183
  %189 = load i64, ptr %9, align 8
  %190 = icmp ule i64 %189, 2560
  br i1 %190, label %191, label %193

191:                                              ; preds = %188
  %192 = call noalias ptr @_emalloc_2560() #15
  br label %211

193:                                              ; preds = %188
  %194 = load i64, ptr %9, align 8
  %195 = icmp ule i64 %194, 3072
  br i1 %195, label %196, label %198

196:                                              ; preds = %193
  %197 = call noalias ptr @_emalloc_3072() #15
  br label %209

198:                                              ; preds = %193
  %199 = load i64, ptr %9, align 8
  %200 = icmp ule i64 %199, 2093056
  br i1 %200, label %201, label %204

201:                                              ; preds = %198
  %202 = load i64, ptr %9, align 8
  %203 = call noalias ptr @_emalloc_large(i64 noundef %202) #16
  br label %207

204:                                              ; preds = %198
  %205 = load i64, ptr %9, align 8
  %206 = call noalias ptr @_emalloc_huge(i64 noundef %205) #16
  br label %207

207:                                              ; preds = %204, %201
  %208 = phi ptr [ %203, %201 ], [ %206, %204 ]
  br label %209

209:                                              ; preds = %207, %196
  %210 = phi ptr [ %197, %196 ], [ %208, %207 ]
  br label %211

211:                                              ; preds = %209, %191
  %212 = phi ptr [ %192, %191 ], [ %210, %209 ]
  br label %213

213:                                              ; preds = %211, %186
  %214 = phi ptr [ %187, %186 ], [ %212, %211 ]
  br label %215

215:                                              ; preds = %213, %181
  %216 = phi ptr [ %182, %181 ], [ %214, %213 ]
  br label %217

217:                                              ; preds = %215, %176
  %218 = phi ptr [ %177, %176 ], [ %216, %215 ]
  br label %219

219:                                              ; preds = %217, %171
  %220 = phi ptr [ %172, %171 ], [ %218, %217 ]
  br label %221

221:                                              ; preds = %219, %166
  %222 = phi ptr [ %167, %166 ], [ %220, %219 ]
  br label %223

223:                                              ; preds = %221, %161
  %224 = phi ptr [ %162, %161 ], [ %222, %221 ]
  br label %225

225:                                              ; preds = %223, %156
  %226 = phi ptr [ %157, %156 ], [ %224, %223 ]
  br label %227

227:                                              ; preds = %225, %151
  %228 = phi ptr [ %152, %151 ], [ %226, %225 ]
  br label %229

229:                                              ; preds = %227, %146
  %230 = phi ptr [ %147, %146 ], [ %228, %227 ]
  br label %231

231:                                              ; preds = %229, %141
  %232 = phi ptr [ %142, %141 ], [ %230, %229 ]
  br label %233

233:                                              ; preds = %231, %136
  %234 = phi ptr [ %137, %136 ], [ %232, %231 ]
  br label %235

235:                                              ; preds = %233, %131
  %236 = phi ptr [ %132, %131 ], [ %234, %233 ]
  br label %237

237:                                              ; preds = %235, %126
  %238 = phi ptr [ %127, %126 ], [ %236, %235 ]
  br label %239

239:                                              ; preds = %237, %121
  %240 = phi ptr [ %122, %121 ], [ %238, %237 ]
  br label %241

241:                                              ; preds = %239, %116
  %242 = phi ptr [ %117, %116 ], [ %240, %239 ]
  br label %243

243:                                              ; preds = %241, %111
  %244 = phi ptr [ %112, %111 ], [ %242, %241 ]
  br label %245

245:                                              ; preds = %243, %106
  %246 = phi ptr [ %107, %106 ], [ %244, %243 ]
  br label %247

247:                                              ; preds = %245, %101
  %248 = phi ptr [ %102, %101 ], [ %246, %245 ]
  br label %249

249:                                              ; preds = %247, %96
  %250 = phi ptr [ %97, %96 ], [ %248, %247 ]
  br label %251

251:                                              ; preds = %249, %91
  %252 = phi ptr [ %92, %91 ], [ %250, %249 ]
  br label %253

253:                                              ; preds = %251, %86
  %254 = phi ptr [ %87, %86 ], [ %252, %251 ]
  br label %255

255:                                              ; preds = %253, %81
  %256 = phi ptr [ %82, %81 ], [ %254, %253 ]
  br label %257

257:                                              ; preds = %255, %76
  %258 = phi ptr [ %77, %76 ], [ %256, %255 ]
  br label %259

259:                                              ; preds = %257, %71
  %260 = phi ptr [ %72, %71 ], [ %258, %257 ]
  br label %261

261:                                              ; preds = %259, %66
  %262 = phi ptr [ %67, %66 ], [ %260, %259 ]
  br label %263

263:                                              ; preds = %261, %61
  %264 = phi ptr [ %62, %61 ], [ %262, %261 ]
  br label %265

265:                                              ; preds = %263, %56
  %266 = phi ptr [ %57, %56 ], [ %264, %263 ]
  br label %267

267:                                              ; preds = %265, %51
  %268 = phi ptr [ %52, %51 ], [ %266, %265 ]
  br label %272

269:                                              ; preds = %45
  %270 = load i64, ptr %9, align 8
  %271 = call noalias ptr @_emalloc(i64 noundef %270) #16
  br label %272

272:                                              ; preds = %269, %267
  %273 = phi ptr [ %268, %267 ], [ %271, %269 ]
  br label %274

274:                                              ; preds = %272, %42
  %275 = phi ptr [ %44, %42 ], [ %273, %272 ]
  %276 = load ptr, ptr %11, align 8
  store ptr %275, ptr %276, align 8
  %277 = load ptr, ptr %11, align 8
  %278 = load ptr, ptr %277, align 8
  %279 = load ptr, ptr %8, align 8
  %280 = load i64, ptr %9, align 8
  call void @llvm.memcpy.p0.p0.i64(ptr align 1 %278, ptr align 1 %279, i64 %280, i1 false)
  %281 = load ptr, ptr %11, align 8
  %282 = load ptr, ptr %281, align 8
  store ptr %282, ptr %5, align 8
  br label %284

283:                                              ; preds = %3
  store ptr null, ptr %5, align 8
  br label %284

284:                                              ; preds = %283, %274
  %285 = load ptr, ptr %5, align 8
  %286 = icmp ne ptr %285, null
  %287 = select i1 %286, i32 0, i32 -1
  store i32 %287, ptr %16, align 4
  %288 = load i32, ptr %16, align 4
  ret i32 %288
}