; Function Attrs: nounwind uwtable
define noundef i32 @zend_register_auto_global(ptr noundef %0, i1 noundef zeroext %1, ptr noundef %2) local_unnamed_addr #0 {
  %4 = alloca %struct._zval_struct, align 8
  %5 = zext i1 %1 to i8
  %6 = load ptr, ptr getelementptr inbounds (%struct._zend_compiler_globals, ptr @compiler_globals, i64 0, i32 7), align 8
  store ptr null, ptr %4, align 8
  %7 = getelementptr inbounds i8, ptr %4, i64 8
  store i32 13, ptr %7, align 8
  %8 = call ptr @zend_hash_add(ptr noundef %6, ptr noundef %0, ptr noundef nonnull %4) #30
  %.not = icmp eq ptr %8, null
  br i1 %.not, label %19, label %9

9:                                                ; preds = %3
  %10 = getelementptr inbounds i8, ptr %6, i64 4
  %11 = load i32, ptr %10, align 4
  %12 = and i32 %11, 128
  %.not50 = icmp eq i32 %12, 0
  br i1 %.not50, label %15, label %13

13:                                               ; preds = %9
  %14 = call noalias dereferenceable_or_null(24) ptr @__zend_malloc(i64 noundef 24) #32
  br label %17

15:                                               ; preds = %9
  %16 = call noalias ptr @_emalloc_24() #30
  br label %17

17:                                               ; preds = %15, %13
  %18 = phi ptr [ %14, %13 ], [ %16, %15 ]
  store ptr %18, ptr %8, align 8
  store ptr %0, ptr %18, align 1
  %.sroa.3.0..sroa_idx = getelementptr inbounds i8, ptr %18, i64 8
  store ptr %2, ptr %.sroa.3.0..sroa_idx, align 1
  %.sroa.4.0..sroa_idx = getelementptr inbounds i8, ptr %18, i64 16
  store i8 %5, ptr %.sroa.4.0..sroa_idx, align 1
  br label %19

19:                                               ; preds = %3, %17
  %.0 = phi i32 [ 0, %17 ], [ -1, %3 ]
  ret i32 %.0
}